target datalayout = "e-m:e-p270:32:32-p271:32:32-p272:64:64-i64:64-i128:128-f80:128-n8:16:32:64-S128"
target triple = "x86_64-pc-linux-gnu"

%struct._diam_sub_dis_t = type { i32, i32, i32, i32, i32, ptr, ptr, i32, i32, i32 }
%struct._proto_node = type { ptr, ptr, ptr, ptr, ptr, ptr }
%struct.field_info = type { ptr, i32, i32, i32, i32, i32, i32, ptr, ptr, ptr, i32, i32 }

@hf_diameter_3gpp_feature_list_flags = internal global i32 0, align 4
@hf_diameter_3gpp_cx_feature_list_flags = internal global i32 0, align 4
@hf_diameter_3gpp_feature_list_gx_flags = internal global i32 0, align 4
@hf_diameter_3gpp_feature_list_sd_flags = internal global i32 0, align 4
@hf_diameter_3gpp_feature_list_s6t_flags = internal global i32 0, align 4
@ett_diameter_3gpp_feature_list = internal global i32 0, align 4

; Function Attrs: nounwind uwtable
define internal void @proto_item_set_visible(ptr noundef %0) #0 {
  %2 = alloca ptr, align 8
  store ptr %0, ptr %2, align 8
  %3 = load ptr, ptr %2, align 8
  %4 = icmp ne ptr %3, null
  br i1 %4, label %5, label %24

5:                                                ; preds = %1
  br label %6

6:                                                ; preds = %5
  %7 = load ptr, ptr %2, align 8
  %8 = getelementptr inbounds %struct._proto_node, ptr %7, i32 0, i32 4
  %9 = load ptr, ptr %8, align 8
  %10 = icmp ne ptr %9, null
  br i1 %10, label %11, label %22

11:                                               ; preds = %6
  %12 = load ptr, ptr %2, align 8
  %13 = getelementptr inbounds %struct._proto_node, ptr %12, i32 0, i32 4
  %14 = load ptr, ptr %13, align 8
  %15 = getelementptr inbounds %struct.field_info, ptr %14, i32 0, i32 6
  %16 = load i32, ptr %15, align 4
  %17 = and i32 %16, -2
  %18 = load ptr, ptr %2, align 8
  %19 = getelementptr inbounds %struct._proto_node, ptr %18, i32 0, i32 4
  %20 = load ptr, ptr %19, align 8
  %21 = getelementptr inbounds %struct.field_info, ptr %20, i32 0, i32 6
  store i32 %17, ptr %21, align 4
  br label %22

22:                                               ; preds = %11, %6
  br label %23

23:                                               ; preds = %22
  br label %24

24:                                               ; preds = %23, %1
  ret void
}

; Function Attrs: nounwind uwtable
define internal void @proto_item_set_hidden(ptr noundef %0) #0 {
  %2 = alloca ptr, align 8
  store ptr %0, ptr %2, align 8
  %3 = load ptr, ptr %2, align 8
  %4 = icmp ne ptr %3, null
  br i1 %4, label %5, label %24

5:                                                ; preds = %1
  br label %6

6:                                                ; preds = %5
  %7 = load ptr, ptr %2, align 8
  %8 = getelementptr inbounds %struct._proto_node, ptr %7, i32 0, i32 4
  %9 = load ptr, ptr %8, align 8
  %10 = icmp ne ptr %9, null
  br i1 %10, label %11, label %22

11:                                               ; preds = %6
  %12 = load ptr, ptr %2, align 8
  %13 = getelementptr inbounds %struct._proto_node, ptr %12, i32 0, i32 4
  %14 = load ptr, ptr %13, align 8
  %15 = getelementptr inbounds %struct.field_info, ptr %14, i32 0, i32 6
  %16 = load i32, ptr %15, align 4
  %17 = or i32 %16, 1
  %18 = load ptr, ptr %2, align 8
  %19 = getelementptr inbounds %struct._proto_node, ptr %18, i32 0, i32 4
  %20 = load ptr, ptr %19, align 8
  %21 = getelementptr inbounds %struct.field_info, ptr %20, i32 0, i32 6
  store i32 %17, ptr %21, align 4
  br label %22

22:                                               ; preds = %11, %6
  br label %23

23:                                               ; preds = %22
  br label %24

24:                                               ; preds = %23, %1
  ret void
}

; Function Attrs: nounwind uwtable
define internal i32 @dissect_diameter_3gpp_feature_list(ptr noundef %0, ptr noundef %1, ptr noundef %2, ptr noundef %3) #0 {
  %5 = alloca i32, align 4
  %6 = alloca ptr, align 8
  %7 = alloca ptr, align 8
  %8 = alloca ptr, align 8
  %9 = alloca ptr, align 8
  %10 = alloca i32, align 4
  %11 = alloca i32, align 4
  %12 = alloca i32, align 4
  %13 = alloca ptr, align 8
  %14 = alloca [12 x ptr], align 16
  store ptr %0, ptr %6, align 8
  store ptr %1, ptr %7, align 8
  store ptr %2, ptr %8, align 8
  store ptr %3, ptr %9, align 8
  store i32 0, ptr %10, align 4
  store i32 0, ptr %11, align 4
  store i32 0, ptr %12, align 4
  %15 = load ptr, ptr %9, align 8
  store ptr %15, ptr %13, align 8
  %16 = load ptr, ptr %13, align 8
  %17 = icmp ne ptr %16, null
  br i1 %17, label %19, label %18

18:                                               ; preds = %4
  store i32 4, ptr %5, align 4
  br label %128

19:                                               ; preds = %4
  %20 = load ptr, ptr %13, align 8
  %21 = getelementptr inbounds %struct._diam_sub_dis_t, ptr %20, i32 0, i32 0
  %22 = load i32, ptr %21, align 8
  store i32 %22, ptr %11, align 4
  %23 = load ptr, ptr %13, align 8
  %24 = getelementptr inbounds %struct._diam_sub_dis_t, ptr %23, i32 0, i32 2
  %25 = load i32, ptr %24, align 8
  store i32 %25, ptr %12, align 4
  %26 = load ptr, ptr %13, align 8
  %27 = getelementptr inbounds %struct._diam_sub_dis_t, ptr %26, i32 0, i32 6
  %28 = load ptr, ptr %27, align 8
  call void @proto_item_set_hidden(ptr noundef %28)
  %29 = load i32, ptr %11, align 4
  switch i32 %29, label %123 [
    i32 16777216, label %30
    i32 16777236, label %37
    i32 16777217, label %59
    i32 16777251, label %66
    i32 16777238, label %88
    i32 16777303, label %110
    i32 16777345, label %116
  ]

30:                                               ; preds = %19
  %31 = load ptr, ptr %8, align 8
  %32 = load ptr, ptr %6, align 8
  %33 = load i32, ptr %10, align 4
  %34 = load i32, ptr @hf_diameter_3gpp_cx_feature_list_flags, align 4
  %35 = load i32, ptr @ett_diameter_3gpp_feature_list, align 4
  %36 = call ptr @proto_tree_add_bitmask_with_flags(ptr noundef %31, ptr noundef %32, i32 noundef %33, i32 noundef %34, i32 noundef %35, ptr noundef @diameter_3gpp_cx_feature_list_1_fields, i32 noundef 0, i32 noundef 1)
  br label %127

37:                                               ; preds = %19
  %38 = load i32, ptr %12, align 4
  %39 = icmp eq i32 %38, 1
  br i1 %39, label %40, label %47

40:                                               ; preds = %37
  %41 = load ptr, ptr %8, align 8
  %42 = load ptr, ptr %6, align 8
  %43 = load i32, ptr %10, align 4
  %44 = load i32, ptr @hf_diameter_3gpp_feature_list_flags, align 4
  %45 = load i32, ptr @ett_diameter_3gpp_feature_list, align 4
  %46 = call ptr @proto_tree_add_bitmask_with_flags(ptr noundef %41, ptr noundef %42, i32 noundef %43, i32 noundef %44, i32 noundef %45, ptr noundef @dissect_diameter_3gpp_feature_list.flags, i32 noundef 0, i32 noundef 1)
  br label %58

47:                                               ; preds = %37
  %48 = load i32, ptr %12, align 4
  %49 = icmp eq i32 %48, 2
  br i1 %49, label %50, label %57

50:                                               ; preds = %47
  %51 = load ptr, ptr %8, align 8
  %52 = load ptr, ptr %6, align 8
  %53 = load i32, ptr %10, align 4
  %54 = load i32, ptr @hf_diameter_3gpp_feature_list_flags, align 4
  %55 = load i32, ptr @ett_diameter_3gpp_feature_list, align 4
  %56 = call ptr @proto_tree_add_bitmask_with_flags(ptr noundef %51, ptr noundef %52, i32 noundef %53, i32 noundef %54, i32 noundef %55, ptr noundef @dissect_diameter_3gpp_feature_list.flags.951, i32 noundef 0, i32 noundef 1)
  br label %57

57:                                               ; preds = %50, %47
  br label %58

58:                                               ; preds = %57, %40
  br label %127

59:                                               ; preds = %19
  %60 = load ptr, ptr %8, align 8
  %61 = load ptr, ptr %6, align 8
  %62 = load i32, ptr %10, align 4
  %63 = load i32, ptr @hf_diameter_3gpp_feature_list_flags, align 4
  %64 = load i32, ptr @ett_diameter_3gpp_feature_list, align 4
  %65 = call ptr @proto_tree_add_bitmask_with_flags(ptr noundef %60, ptr noundef %61, i32 noundef %62, i32 noundef %63, i32 noundef %64, ptr noundef @dissect_diameter_3gpp_feature_list.flags.952, i32 noundef 0, i32 noundef 1)
  br label %127

66:                                               ; preds = %19
  %67 = load i32, ptr %12, align 4
  %68 = icmp eq i32 %67, 1
  br i1 %68, label %69, label %76

69:                                               ; preds = %66
  %70 = load ptr, ptr %8, align 8
  %71 = load ptr, ptr %6, align 8
  %72 = load i32, ptr %10, align 4
  %73 = load i32, ptr @hf_diameter_3gpp_feature_list_flags, align 4
  %74 = load i32, ptr @ett_diameter_3gpp_feature_list, align 4
  %75 = call ptr @proto_tree_add_bitmask_with_flags(ptr noundef %70, ptr noundef %71, i32 noundef %72, i32 noundef %73, i32 noundef %74, ptr noundef @dissect_diameter_3gpp_feature_list.flags.953, i32 noundef 0, i32 noundef 1)
  br label %87

76:                                               ; preds = %66
  %77 = load i32, ptr %12, align 4
  %78 = icmp eq i32 %77, 2
  br i1 %78, label %79, label %86

79:                                               ; preds = %76
  %80 = load ptr, ptr %8, align 8
  %81 = load ptr, ptr %6, align 8
  %82 = load i32, ptr %10, align 4
  %83 = load i32, ptr @hf_diameter_3gpp_feature_list_flags, align 4
  %84 = load i32, ptr @ett_diameter_3gpp_feature_list, align 4
  %85 = call ptr @proto_tree_add_bitmask_with_flags(ptr noundef %80, ptr noundef %81, i32 noundef %82, i32 noundef %83, i32 noundef %84, ptr noundef @dissect_diameter_3gpp_feature_list.flags.954, i32 noundef 0, i32 noundef 1)
  br label %86

86:                                               ; preds = %79, %76
  br label %87

87:                                               ; preds = %86, %69
  br label %127

88:                                               ; preds = %19
  %89 = load i32, ptr %12, align 4
  %90 = icmp eq i32 %89, 1
  br i1 %90, label %91, label %98

91:                                               ; preds = %88
  %92 = load ptr, ptr %8, align 8
  %93 = load ptr, ptr %6, align 8
  %94 = load i32, ptr %10, align 4
  %95 = load i32, ptr @hf_diameter_3gpp_feature_list_gx_flags, align 4
  %96 = load i32, ptr @ett_diameter_3gpp_feature_list, align 4
  %97 = call ptr @proto_tree_add_bitmask_with_flags(ptr noundef %92, ptr noundef %93, i32 noundef %94, i32 noundef %95, i32 noundef %96, ptr noundef @dissect_diameter_3gpp_feature_list.flags.955, i32 noundef 0, i32 noundef 1)
  br label %109

98:                                               ; preds = %88
  %99 = load i32, ptr %12, align 4
  %100 = icmp eq i32 %99, 2
  br i1 %100, label %101, label %108

101:                                              ; preds = %98
  %102 = load ptr, ptr %8, align 8
  %103 = load ptr, ptr %6, align 8
  %104 = load i32, ptr %10, align 4
  %105 = load i32, ptr @hf_diameter_3gpp_feature_list_gx_flags, align 4
  %106 = load i32, ptr @ett_diameter_3gpp_feature_list, align 4
  %107 = call ptr @proto_tree_add_bitmask_with_flags(ptr noundef %102, ptr noundef %103, i32 noundef %104, i32 noundef %105, i32 noundef %106, ptr noundef @dissect_diameter_3gpp_feature_list.flags.956, i32 noundef 0, i32 noundef 1)
  br label %108

108:                                              ; preds = %101, %98
  br label %109

109:                                              ; preds = %108, %91
  br label %127

110:                                              ; preds = %19
  %111 = load ptr, ptr %8, align 8
  %112 = load ptr, ptr %6, align 8
  %113 = load i32, ptr @hf_diameter_3gpp_feature_list_sd_flags, align 4
  %114 = load i32, ptr @ett_diameter_3gpp_feature_list, align 4
  %115 = call ptr @proto_tree_add_bitmask_with_flags(ptr noundef %111, ptr noundef %112, i32 noundef 0, i32 noundef %113, i32 noundef %114, ptr noundef @diameter_3gpp_sd_feature_list_fields, i32 noundef 0, i32 noundef 1)
  br label %127

116:                                              ; preds = %19
  call void @llvm.memcpy.p0.p0.i64(ptr align 16 %14, ptr align 16 @__const.dissect_diameter_3gpp_feature_list.flags, i64 96, i1 false)
  %117 = load ptr, ptr %8, align 8
  %118 = load ptr, ptr %6, align 8
  %119 = load i32, ptr @hf_diameter_3gpp_feature_list_s6t_flags, align 4
  %120 = load i32, ptr @ett_diameter_3gpp_feature_list, align 4
  %121 = getelementptr inbounds [12 x ptr], ptr %14, i64 0, i64 0
  %122 = call ptr @proto_tree_add_bitmask_with_flags(ptr noundef %117, ptr noundef %118, i32 noundef 0, i32 noundef %119, i32 noundef %120, ptr noundef %121, i32 noundef 0, i32 noundef 1)
  br label %127

123:                                              ; preds = %19
  %124 = load ptr, ptr %13, align 8
  %125 = getelementptr inbounds %struct._diam_sub_dis_t, ptr %124, i32 0, i32 6
  %126 = load ptr, ptr %125, align 8
  call void @proto_item_set_visible(ptr noundef %126)
  br label %127

127:                                              ; preds = %123, %116, %110, %109, %87, %59, %58, %30
  store i32 4, ptr %5, align 4
  br label %128

128:                                              ; preds = %127, %18
  %129 = load i32, ptr %5, align 4
  ret i32 %129
}