; Function Attrs: nounwind uwtable
define internal noundef i32 @dissect_diameter_3gpp_feature_list(ptr noundef %0, ptr readnone captures(none) %1, ptr noundef %2, ptr noundef readonly %3) #0 {
  %5 = alloca [12 x ptr], align 16
  %.not = icmp eq ptr %3, null
  br i1 %.not, label %proto_item_set_visible.exit, label %6

6:                                                ; preds = %4
  %7 = load i32, ptr %3, align 8
  %8 = getelementptr inbounds nuw i8, ptr %3, i64 8
  %9 = load i32, ptr %8, align 8
  %10 = getelementptr inbounds nuw i8, ptr %3, i64 32
  %11 = load ptr, ptr %10, align 8
  %.not.i = icmp eq ptr %11, null
  br i1 %.not.i, label %proto_item_set_hidden.exit, label %12

12:                                               ; preds = %6
  %13 = getelementptr inbounds nuw i8, ptr %11, i64 32
  %14 = load ptr, ptr %13, align 8
  %.not5.i = icmp eq ptr %14, null
  br i1 %.not5.i, label %proto_item_set_hidden.exit, label %15

15:                                               ; preds = %12
  %16 = getelementptr inbounds nuw i8, ptr %14, i64 28
  %17 = load i32, ptr %16, align 4
  %18 = or i32 %17, 1
  store i32 %18, ptr %16, align 4
  br label %proto_item_set_hidden.exit

proto_item_set_hidden.exit:                       ; preds = %6, %12, %15
  switch i32 %7, label %62 [
    i32 16777216, label %19
    i32 16777236, label %23
    i32 16777217, label %32
    i32 16777251, label %36
    i32 16777238, label %45
    i32 16777303, label %54
    i32 16777345, label %58
  ]

19:                                               ; preds = %proto_item_set_hidden.exit
  %20 = load i32, ptr @hf_diameter_3gpp_cx_feature_list_flags, align 4
  %21 = load i32, ptr @ett_diameter_3gpp_feature_list, align 4
  %22 = tail call ptr @proto_tree_add_bitmask_with_flags(ptr noundef %2, ptr noundef %0, i32 noundef 0, i32 noundef %20, i32 noundef %21, ptr noundef nonnull @diameter_3gpp_cx_feature_list_1_fields, i32 noundef 0, i32 noundef 1) #3
  br label %proto_item_set_visible.exit

23:                                               ; preds = %proto_item_set_hidden.exit
  switch i32 %9, label %proto_item_set_visible.exit [
    i32 1, label %24
    i32 2, label %28
  ]

24:                                               ; preds = %23
  %25 = load i32, ptr @hf_diameter_3gpp_feature_list_flags, align 4
  %26 = load i32, ptr @ett_diameter_3gpp_feature_list, align 4
  %27 = tail call ptr @proto_tree_add_bitmask_with_flags(ptr noundef %2, ptr noundef %0, i32 noundef 0, i32 noundef %25, i32 noundef %26, ptr noundef nonnull @dissect_diameter_3gpp_feature_list.flags, i32 noundef 0, i32 noundef 1) #3
  br label %proto_item_set_visible.exit

28:                                               ; preds = %23
  %29 = load i32, ptr @hf_diameter_3gpp_feature_list_flags, align 4
  %30 = load i32, ptr @ett_diameter_3gpp_feature_list, align 4
  %31 = tail call ptr @proto_tree_add_bitmask_with_flags(ptr noundef %2, ptr noundef %0, i32 noundef 0, i32 noundef %29, i32 noundef %30, ptr noundef nonnull @dissect_diameter_3gpp_feature_list.flags.951, i32 noundef 0, i32 noundef 1) #3
  br label %proto_item_set_visible.exit

32:                                               ; preds = %proto_item_set_hidden.exit
  %33 = load i32, ptr @hf_diameter_3gpp_feature_list_flags, align 4
  %34 = load i32, ptr @ett_diameter_3gpp_feature_list, align 4
  %35 = tail call ptr @proto_tree_add_bitmask_with_flags(ptr noundef %2, ptr noundef %0, i32 noundef 0, i32 noundef %33, i32 noundef %34, ptr noundef nonnull @dissect_diameter_3gpp_feature_list.flags.952, i32 noundef 0, i32 noundef 1) #3
  br label %proto_item_set_visible.exit

36:                                               ; preds = %proto_item_set_hidden.exit
  switch i32 %9, label %proto_item_set_visible.exit [
    i32 1, label %37
    i32 2, label %41
  ]

37:                                               ; preds = %36
  %38 = load i32, ptr @hf_diameter_3gpp_feature_list_flags, align 4
  %39 = load i32, ptr @ett_diameter_3gpp_feature_list, align 4
  %40 = tail call ptr @proto_tree_add_bitmask_with_flags(ptr noundef %2, ptr noundef %0, i32 noundef 0, i32 noundef %38, i32 noundef %39, ptr noundef nonnull @dissect_diameter_3gpp_feature_list.flags.953, i32 noundef 0, i32 noundef 1) #3
  br label %proto_item_set_visible.exit

41:                                               ; preds = %36
  %42 = load i32, ptr @hf_diameter_3gpp_feature_list_flags, align 4
  %43 = load i32, ptr @ett_diameter_3gpp_feature_list, align 4
  %44 = tail call ptr @proto_tree_add_bitmask_with_flags(ptr noundef %2, ptr noundef %0, i32 noundef 0, i32 noundef %42, i32 noundef %43, ptr noundef nonnull @dissect_diameter_3gpp_feature_list.flags.954, i32 noundef 0, i32 noundef 1) #3
  br label %proto_item_set_visible.exit

45:                                               ; preds = %proto_item_set_hidden.exit
  switch i32 %9, label %proto_item_set_visible.exit [
    i32 1, label %46
    i32 2, label %50
  ]

46:                                               ; preds = %45
  %47 = load i32, ptr @hf_diameter_3gpp_feature_list_gx_flags, align 4
  %48 = load i32, ptr @ett_diameter_3gpp_feature_list, align 4
  %49 = tail call ptr @proto_tree_add_bitmask_with_flags(ptr noundef %2, ptr noundef %0, i32 noundef 0, i32 noundef %47, i32 noundef %48, ptr noundef nonnull @dissect_diameter_3gpp_feature_list.flags.955, i32 noundef 0, i32 noundef 1) #3
  br label %proto_item_set_visible.exit

50:                                               ; preds = %45
  %51 = load i32, ptr @hf_diameter_3gpp_feature_list_gx_flags, align 4
  %52 = load i32, ptr @ett_diameter_3gpp_feature_list, align 4
  %53 = tail call ptr @proto_tree_add_bitmask_with_flags(ptr noundef %2, ptr noundef %0, i32 noundef 0, i32 noundef %51, i32 noundef %52, ptr noundef nonnull @dissect_diameter_3gpp_feature_list.flags.956, i32 noundef 0, i32 noundef 1) #3
  br label %proto_item_set_visible.exit

54:                                               ; preds = %proto_item_set_hidden.exit
  %55 = load i32, ptr @hf_diameter_3gpp_feature_list_sd_flags, align 4
  %56 = load i32, ptr @ett_diameter_3gpp_feature_list, align 4
  %57 = tail call ptr @proto_tree_add_bitmask_with_flags(ptr noundef %2, ptr noundef %0, i32 noundef 0, i32 noundef %55, i32 noundef %56, ptr noundef nonnull @diameter_3gpp_sd_feature_list_fields, i32 noundef 0, i32 noundef 1) #3
  br label %proto_item_set_visible.exit

58:                                               ; preds = %proto_item_set_hidden.exit
  call void @llvm.memcpy.p0.p0.i64(ptr noundef nonnull align 16 dereferenceable(96) %5, ptr noundef nonnull align 16 dereferenceable(96) @__const.dissect_diameter_3gpp_feature_list.flags, i64 96, i1 false)
  %59 = load i32, ptr @hf_diameter_3gpp_feature_list_s6t_flags, align 4
  %60 = load i32, ptr @ett_diameter_3gpp_feature_list, align 4
  %61 = call ptr @proto_tree_add_bitmask_with_flags(ptr noundef %2, ptr noundef %0, i32 noundef 0, i32 noundef %59, i32 noundef %60, ptr noundef nonnull %5, i32 noundef 0, i32 noundef 1) #3
  br label %proto_item_set_visible.exit

62:                                               ; preds = %proto_item_set_hidden.exit
  %63 = load ptr, ptr %10, align 8
  %.not.i42 = icmp eq ptr %63, null
  br i1 %.not.i42, label %proto_item_set_visible.exit, label %64

64:                                               ; preds = %62
  %65 = getelementptr inbounds nuw i8, ptr %63, i64 32
  %66 = load ptr, ptr %65, align 8
  %.not5.i43 = icmp eq ptr %66, null
  br i1 %.not5.i43, label %proto_item_set_visible.exit, label %67

67:                                               ; preds = %64
  %68 = getelementptr inbounds nuw i8, ptr %66, i64 28
  %69 = load i32, ptr %68, align 4
  %70 = and i32 %69, -2
  store i32 %70, ptr %68, align 4
  br label %proto_item_set_visible.exit

proto_item_set_visible.exit:                      ; preds = %67, %64, %62, %19, %32, %54, %58, %28, %24, %41, %37, %50, %46, %23, %36, %45, %4
  ret i32 4
}